target datalayout = "e-m:e-p270:32:32-p271:32:32-p272:64:64-i64:64-i128:128-f80:128-n8:16:32:64-S128"
target triple = "x86_64-pc-linux-gnu"

%struct.H265RawHRDParameters = type { i8, i8, i8, i8, i8, i8, i8, i8, i8, i8, i8, i8, i8, [7 x i8], [7 x i8], [7 x i16], [7 x i8], [7 x i8], [7 x %struct.H265RawSubLayerHRDParameters], [7 x %struct.H265RawSubLayerHRDParameters] }
%struct.H265RawSubLayerHRDParameters = type { [32 x i32], [32 x i32], [32 x i32], [32 x i32], [32 x i8] }

@.str.105 = private unnamed_addr constant [25 x i8] c"bit_rate_value_minus1[i]\00", align 1
@.str.106 = private unnamed_addr constant [25 x i8] c"cpb_size_value_minus1[i]\00", align 1
@.str.107 = private unnamed_addr constant [12 x i8] c"cbr_flag[i]\00", align 1
@.str.333 = private unnamed_addr constant [28 x i8] c"cpb_size_du_value_minus1[i]\00", align 1
@.str.334 = private unnamed_addr constant [28 x i8] c"bit_rate_du_value_minus1[i]\00", align 1

; Function Attrs: nounwind uwtable
define internal i32 @cbs_h265_write_sub_layer_hrd_parameters(ptr noundef %0, ptr noundef %1, ptr noundef %2, i32 noundef %3, i32 noundef %4) #0 {
  %6 = alloca i32, align 4
  %7 = alloca ptr, align 8
  %8 = alloca ptr, align 8
  %9 = alloca ptr, align 8
  %10 = alloca i32, align 4
  %11 = alloca i32, align 4
  %12 = alloca ptr, align 8
  %13 = alloca i32, align 4
  %14 = alloca i32, align 4
  %15 = alloca i32, align 4
  %16 = alloca [2 x i32], align 4
  %17 = alloca i32, align 4
  %18 = alloca i32, align 4
  %19 = alloca [2 x i32], align 4
  %20 = alloca i32, align 4
  %21 = alloca [2 x i32], align 4
  %22 = alloca i32, align 4
  %23 = alloca [2 x i32], align 4
  %24 = alloca i32, align 4
  %25 = alloca [2 x i32], align 4
  store ptr %0, ptr %7, align 8, !tbaa !4
  store ptr %1, ptr %8, align 8, !tbaa !70
  store ptr %2, ptr %9, align 8, !tbaa !689
  store i32 %3, ptr %10, align 4, !tbaa !11
  store i32 %4, ptr %11, align 4, !tbaa !11
  call void @llvm.lifetime.start.p0(i64 8, ptr %12) #11
  call void @llvm.lifetime.start.p0(i64 4, ptr %13) #11
  call void @llvm.lifetime.start.p0(i64 4, ptr %14) #11
  %26 = load i32, ptr %10, align 4, !tbaa !11
  %27 = icmp ne i32 %26, 0
  br i1 %27, label %28, label %34

28:                                               ; preds = %5
  %29 = load ptr, ptr %9, align 8, !tbaa !689
  %30 = getelementptr inbounds nuw %struct.H265RawHRDParameters, ptr %29, i32 0, i32 18
  %31 = load i32, ptr %11, align 4, !tbaa !11
  %32 = sext i32 %31 to i64
  %33 = getelementptr inbounds [7 x %struct.H265RawSubLayerHRDParameters], ptr %30, i64 0, i64 %32
  store ptr %33, ptr %12, align 8, !tbaa !713
  br label %40

34:                                               ; preds = %5
  %35 = load ptr, ptr %9, align 8, !tbaa !689
  %36 = getelementptr inbounds nuw %struct.H265RawHRDParameters, ptr %35, i32 0, i32 19
  %37 = load i32, ptr %11, align 4, !tbaa !11
  %38 = sext i32 %37 to i64
  %39 = getelementptr inbounds [7 x %struct.H265RawSubLayerHRDParameters], ptr %36, i64 0, i64 %38
  store ptr %39, ptr %12, align 8, !tbaa !713
  br label %40

40:                                               ; preds = %34, %28
  store i32 0, ptr %14, align 4, !tbaa !11
  br label %41

41:                                               ; preds = %194, %40
  %42 = load i32, ptr %14, align 4, !tbaa !11
  %43 = load ptr, ptr %9, align 8, !tbaa !689
  %44 = getelementptr inbounds nuw %struct.H265RawHRDParameters, ptr %43, i32 0, i32 17
  %45 = load i32, ptr %11, align 4, !tbaa !11
  %46 = sext i32 %45 to i64
  %47 = getelementptr inbounds [7 x i8], ptr %44, i64 0, i64 %46
  %48 = load i8, ptr %47, align 1, !tbaa !32
  %49 = zext i8 %48 to i32
  %50 = icmp sle i32 %42, %49
  br i1 %50, label %51, label %197

51:                                               ; preds = %41
  br label %52

52:                                               ; preds = %51
  call void @llvm.lifetime.start.p0(i64 4, ptr %15) #11
  %53 = load ptr, ptr %12, align 8, !tbaa !713
  %54 = getelementptr inbounds nuw %struct.H265RawSubLayerHRDParameters, ptr %53, i32 0, i32 0
  %55 = load i32, ptr %14, align 4, !tbaa !11
  %56 = sext i32 %55 to i64
  %57 = getelementptr inbounds [32 x i32], ptr %54, i64 0, i64 %56
  %58 = load i32, ptr %57, align 4, !tbaa !11
  store i32 %58, ptr %15, align 4, !tbaa !11
  br label %59

59:                                               ; preds = %52
  %60 = load ptr, ptr %7, align 8, !tbaa !4
  %61 = load ptr, ptr %8, align 8, !tbaa !70
  store i32 1, ptr %16, align 4, !tbaa !11
  %62 = getelementptr inbounds i32, ptr %16, i64 1
  %63 = load i32, ptr %14, align 4, !tbaa !11
  store i32 %63, ptr %62, align 4, !tbaa !11
  %64 = getelementptr inbounds [2 x i32], ptr %16, i64 0, i64 0
  %65 = load i32, ptr %15, align 4, !tbaa !11
  %66 = call i32 @cbs_write_ue_golomb(ptr noundef %60, ptr noundef %61, ptr noundef @.str.105, ptr noundef %64, i32 noundef %65, i32 noundef 0, i32 noundef -2)
  store i32 %66, ptr %13, align 4, !tbaa !11
  %67 = load i32, ptr %13, align 4, !tbaa !11
  %68 = icmp slt i32 %67, 0
  br i1 %68, label %69, label %71

69:                                               ; preds = %59
  %70 = load i32, ptr %13, align 4, !tbaa !11
  store i32 %70, ptr %6, align 4
  store i32 1, ptr %17, align 4
  br label %74

71:                                               ; preds = %59
  br label %72

72:                                               ; preds = %71
  br label %73

73:                                               ; preds = %72
  store i32 0, ptr %17, align 4
  br label %74

74:                                               ; preds = %73, %69
  call void @llvm.lifetime.end.p0(i64 4, ptr %15) #11
  %75 = load i32, ptr %17, align 4
  switch i32 %75, label %198 [
    i32 0, label %76
  ]

76:                                               ; preds = %74
  br label %77

77:                                               ; preds = %76
  br label %78

78:                                               ; preds = %77
  br label %79

79:                                               ; preds = %78
  call void @llvm.lifetime.start.p0(i64 4, ptr %18) #11
  %80 = load ptr, ptr %12, align 8, !tbaa !713
  %81 = getelementptr inbounds nuw %struct.H265RawSubLayerHRDParameters, ptr %80, i32 0, i32 1
  %82 = load i32, ptr %14, align 4, !tbaa !11
  %83 = sext i32 %82 to i64
  %84 = getelementptr inbounds [32 x i32], ptr %81, i64 0, i64 %83
  %85 = load i32, ptr %84, align 4, !tbaa !11
  store i32 %85, ptr %18, align 4, !tbaa !11
  br label %86

86:                                               ; preds = %79
  %87 = load ptr, ptr %7, align 8, !tbaa !4
  %88 = load ptr, ptr %8, align 8, !tbaa !70
  store i32 1, ptr %19, align 4, !tbaa !11
  %89 = getelementptr inbounds i32, ptr %19, i64 1
  %90 = load i32, ptr %14, align 4, !tbaa !11
  store i32 %90, ptr %89, align 4, !tbaa !11
  %91 = getelementptr inbounds [2 x i32], ptr %19, i64 0, i64 0
  %92 = load i32, ptr %18, align 4, !tbaa !11
  %93 = call i32 @cbs_write_ue_golomb(ptr noundef %87, ptr noundef %88, ptr noundef @.str.106, ptr noundef %91, i32 noundef %92, i32 noundef 0, i32 noundef -2)
  store i32 %93, ptr %13, align 4, !tbaa !11
  %94 = load i32, ptr %13, align 4, !tbaa !11
  %95 = icmp slt i32 %94, 0
  br i1 %95, label %96, label %98

96:                                               ; preds = %86
  %97 = load i32, ptr %13, align 4, !tbaa !11
  store i32 %97, ptr %6, align 4
  store i32 1, ptr %17, align 4
  br label %101

98:                                               ; preds = %86
  br label %99

99:                                               ; preds = %98
  br label %100

100:                                              ; preds = %99
  store i32 0, ptr %17, align 4
  br label %101

101:                                              ; preds = %100, %96
  call void @llvm.lifetime.end.p0(i64 4, ptr %18) #11
  %102 = load i32, ptr %17, align 4
  switch i32 %102, label %198 [
    i32 0, label %103
  ]

103:                                              ; preds = %101
  br label %104

104:                                              ; preds = %103
  br label %105

105:                                              ; preds = %104
  %106 = load ptr, ptr %9, align 8, !tbaa !689
  %107 = getelementptr inbounds nuw %struct.H265RawHRDParameters, ptr %106, i32 0, i32 2
  %108 = load i8, ptr %107, align 2, !tbaa !693
  %109 = icmp ne i8 %108, 0
  br i1 %109, label %110, label %165

110:                                              ; preds = %105
  br label %111

111:                                              ; preds = %110
  call void @llvm.lifetime.start.p0(i64 4, ptr %20) #11
  %112 = load ptr, ptr %12, align 8, !tbaa !713
  %113 = getelementptr inbounds nuw %struct.H265RawSubLayerHRDParameters, ptr %112, i32 0, i32 2
  %114 = load i32, ptr %14, align 4, !tbaa !11
  %115 = sext i32 %114 to i64
  %116 = getelementptr inbounds [32 x i32], ptr %113, i64 0, i64 %115
  %117 = load i32, ptr %116, align 4, !tbaa !11
  store i32 %117, ptr %20, align 4, !tbaa !11
  br label %118

118:                                              ; preds = %111
  %119 = load ptr, ptr %7, align 8, !tbaa !4
  %120 = load ptr, ptr %8, align 8, !tbaa !70
  store i32 1, ptr %21, align 4, !tbaa !11
  %121 = getelementptr inbounds i32, ptr %21, i64 1
  %122 = load i32, ptr %14, align 4, !tbaa !11
  store i32 %122, ptr %121, align 4, !tbaa !11
  %123 = getelementptr inbounds [2 x i32], ptr %21, i64 0, i64 0
  %124 = load i32, ptr %20, align 4, !tbaa !11
  %125 = call i32 @cbs_write_ue_golomb(ptr noundef %119, ptr noundef %120, ptr noundef @.str.333, ptr noundef %123, i32 noundef %124, i32 noundef 0, i32 noundef -2)
  store i32 %125, ptr %13, align 4, !tbaa !11
  %126 = load i32, ptr %13, align 4, !tbaa !11
  %127 = icmp slt i32 %126, 0
  br i1 %127, label %128, label %130

128:                                              ; preds = %118
  %129 = load i32, ptr %13, align 4, !tbaa !11
  store i32 %129, ptr %6, align 4
  store i32 1, ptr %17, align 4
  br label %133

130:                                              ; preds = %118
  br label %131

131:                                              ; preds = %130
  br label %132

132:                                              ; preds = %131
  store i32 0, ptr %17, align 4
  br label %133

133:                                              ; preds = %132, %128
  call void @llvm.lifetime.end.p0(i64 4, ptr %20) #11
  %134 = load i32, ptr %17, align 4
  switch i32 %134, label %198 [
    i32 0, label %135
  ]

135:                                              ; preds = %133
  br label %136

136:                                              ; preds = %135
  br label %137

137:                                              ; preds = %136
  br label %138

138:                                              ; preds = %137
  call void @llvm.lifetime.start.p0(i64 4, ptr %22) #11
  %139 = load ptr, ptr %12, align 8, !tbaa !713
  %140 = getelementptr inbounds nuw %struct.H265RawSubLayerHRDParameters, ptr %139, i32 0, i32 3
  %141 = load i32, ptr %14, align 4, !tbaa !11
  %142 = sext i32 %141 to i64
  %143 = getelementptr inbounds [32 x i32], ptr %140, i64 0, i64 %142
  %144 = load i32, ptr %143, align 4, !tbaa !11
  store i32 %144, ptr %22, align 4, !tbaa !11
  br label %145

145:                                              ; preds = %138
  %146 = load ptr, ptr %7, align 8, !tbaa !4
  %147 = load ptr, ptr %8, align 8, !tbaa !70
  store i32 1, ptr %23, align 4, !tbaa !11
  %148 = getelementptr inbounds i32, ptr %23, i64 1
  %149 = load i32, ptr %14, align 4, !tbaa !11
  store i32 %149, ptr %148, align 4, !tbaa !11
  %150 = getelementptr inbounds [2 x i32], ptr %23, i64 0, i64 0
  %151 = load i32, ptr %22, align 4, !tbaa !11
  %152 = call i32 @cbs_write_ue_golomb(ptr noundef %146, ptr noundef %147, ptr noundef @.str.334, ptr noundef %150, i32 noundef %151, i32 noundef 0, i32 noundef -2)
  store i32 %152, ptr %13, align 4, !tbaa !11
  %153 = load i32, ptr %13, align 4, !tbaa !11
  %154 = icmp slt i32 %153, 0
  br i1 %154, label %155, label %157

155:                                              ; preds = %145
  %156 = load i32, ptr %13, align 4, !tbaa !11
  store i32 %156, ptr %6, align 4
  store i32 1, ptr %17, align 4
  br label %160

157:                                              ; preds = %145
  br label %158

158:                                              ; preds = %157
  br label %159

159:                                              ; preds = %158
  store i32 0, ptr %17, align 4
  br label %160

160:                                              ; preds = %159, %155
  call void @llvm.lifetime.end.p0(i64 4, ptr %22) #11
  %161 = load i32, ptr %17, align 4
  switch i32 %161, label %198 [
    i32 0, label %162
  ]

162:                                              ; preds = %160
  br label %163

163:                                              ; preds = %162
  br label %164

164:                                              ; preds = %163
  br label %165

165:                                              ; preds = %164, %105
  br label %166

166:                                              ; preds = %165
  call void @llvm.lifetime.start.p0(i64 4, ptr %24) #11
  %167 = load ptr, ptr %12, align 8, !tbaa !713
  %168 = getelementptr inbounds nuw %struct.H265RawSubLayerHRDParameters, ptr %167, i32 0, i32 4
  %169 = load i32, ptr %14, align 4, !tbaa !11
  %170 = sext i32 %169 to i64
  %171 = getelementptr inbounds [32 x i8], ptr %168, i64 0, i64 %170
  %172 = load i8, ptr %171, align 1, !tbaa !32
  %173 = zext i8 %172 to i32
  store i32 %173, ptr %24, align 4, !tbaa !11
  br label %174

174:                                              ; preds = %166
  %175 = load ptr, ptr %7, align 8, !tbaa !4
  %176 = load ptr, ptr %8, align 8, !tbaa !70
  store i32 1, ptr %25, align 4, !tbaa !11
  %177 = getelementptr inbounds i32, ptr %25, i64 1
  %178 = load i32, ptr %14, align 4, !tbaa !11
  store i32 %178, ptr %177, align 4, !tbaa !11
  %179 = getelementptr inbounds [2 x i32], ptr %25, i64 0, i64 0
  %180 = load i32, ptr %24, align 4, !tbaa !11
  %181 = call i32 @ff_cbs_write_unsigned(ptr noundef %175, ptr noundef %176, i32 noundef 1, ptr noundef @.str.107, ptr noundef %179, i32 noundef %180, i32 noundef 0, i32 noundef 1)
  store i32 %181, ptr %13, align 4, !tbaa !11
  %182 = load i32, ptr %13, align 4, !tbaa !11
  %183 = icmp slt i32 %182, 0
  br i1 %183, label %184, label %186

184:                                              ; preds = %174
  %185 = load i32, ptr %13, align 4, !tbaa !11
  store i32 %185, ptr %6, align 4
  store i32 1, ptr %17, align 4
  br label %189

186:                                              ; preds = %174
  br label %187

187:                                              ; preds = %186
  br label %188

188:                                              ; preds = %187
  store i32 0, ptr %17, align 4
  br label %189

189:                                              ; preds = %188, %184
  call void @llvm.lifetime.end.p0(i64 4, ptr %24) #11
  %190 = load i32, ptr %17, align 4
  switch i32 %190, label %198 [
    i32 0, label %191
  ]

191:                                              ; preds = %189
  br label %192

192:                                              ; preds = %191
  br label %193

193:                                              ; preds = %192
  br label %194

194:                                              ; preds = %193
  %195 = load i32, ptr %14, align 4, !tbaa !11
  %196 = add nsw i32 %195, 1
  store i32 %196, ptr %14, align 4, !tbaa !11
  br label %41, !llvm.loop !880

197:                                              ; preds = %41
  store i32 0, ptr %6, align 4
  store i32 1, ptr %17, align 4
  br label %198

198:                                              ; preds = %197, %189, %160, %133, %101, %74
  call void @llvm.lifetime.end.p0(i64 4, ptr %14) #11
  call void @llvm.lifetime.end.p0(i64 4, ptr %13) #11
  call void @llvm.lifetime.end.p0(i64 8, ptr %12) #11
  %199 = load i32, ptr %6, align 4
  ret i32 %199
}