; Function Attrs: nounwind uwtable
define internal fastcc range(i32 -2147483648, 1) i32 @cbs_h265_write_sub_layer_hrd_parameters(ptr noundef %0, ptr noundef %1, ptr noundef readonly captures(none) %2, i32 noundef range(i32 0, 2) %3, i32 noundef range(i32 -2147483648, 256) %4) unnamed_addr #0 {
  %6 = alloca [2 x i32], align 4
  %7 = alloca [2 x i32], align 4
  %8 = alloca [2 x i32], align 4
  %9 = alloca [2 x i32], align 4
  %10 = alloca [2 x i32], align 4
  %.not = icmp eq i32 %3, 0
  %11 = getelementptr inbounds nuw i8, ptr %2, i64 56
  %12 = sext i32 %4 to i64
  %13 = getelementptr inbounds [7 x %struct.H265RawSubLayerHRDParameters], ptr %11, i64 0, i64 %12
  %14 = getelementptr inbounds nuw i8, ptr %2, i64 3864
  %15 = getelementptr inbounds [7 x %struct.H265RawSubLayerHRDParameters], ptr %14, i64 0, i64 %12
  %.059 = select i1 %.not, ptr %15, ptr %13
  %16 = getelementptr inbounds nuw i8, ptr %.059, i64 128
  %17 = getelementptr inbounds nuw i8, ptr %.059, i64 256
  %18 = getelementptr inbounds nuw i8, ptr %.059, i64 384
  %19 = getelementptr inbounds nuw i8, ptr %2, i64 49
  %20 = getelementptr inbounds [7 x i8], ptr %19, i64 0, i64 %12
  %21 = getelementptr inbounds nuw i8, ptr %6, i64 4
  %22 = getelementptr inbounds nuw i8, ptr %7, i64 4
  %23 = getelementptr inbounds nuw i8, ptr %2, i64 2
  %24 = getelementptr inbounds nuw i8, ptr %8, i64 4
  %25 = getelementptr inbounds nuw i8, ptr %9, i64 4
  %26 = getelementptr inbounds nuw i8, ptr %.059, i64 512
  %27 = getelementptr inbounds nuw i8, ptr %10, i64 4
  br label %31

28:                                               ; preds = %54
  %indvars.iv.next = add nuw nsw i64 %indvars.iv, 1
  %29 = load i8, ptr %20, align 1, !tbaa !25
  %30 = zext i8 %29 to i64
  %.not71.not = icmp samesign ult i64 %indvars.iv, %30
  br i1 %.not71.not, label %31, label %60, !llvm.loop !1141

31:                                               ; preds = %5, %28
  %indvars.iv = phi i64 [ 0, %5 ], [ %indvars.iv.next, %28 ]
  %32 = getelementptr inbounds nuw [32 x i32], ptr %.059, i64 0, i64 %indvars.iv
  %33 = load i32, ptr %32, align 4, !tbaa !63
  store i32 1, ptr %6, align 4, !tbaa !63
  %34 = trunc nuw nsw i64 %indvars.iv to i32
  store i32 %34, ptr %21, align 4, !tbaa !63
  %35 = call fastcc i32 @cbs_write_ue_golomb(ptr noundef %0, ptr noundef %1, ptr noundef nonnull @.str.105, ptr noundef nonnull %6, i32 noundef %33, i32 noundef 0, i32 noundef -2)
  %36 = icmp sgt i32 %35, -1
  br i1 %36, label %37, label %60

37:                                               ; preds = %31
  %38 = getelementptr inbounds nuw [32 x i32], ptr %16, i64 0, i64 %indvars.iv
  %39 = load i32, ptr %38, align 4, !tbaa !63
  store i32 1, ptr %7, align 4, !tbaa !63
  store i32 %34, ptr %22, align 4, !tbaa !63
  %40 = call fastcc i32 @cbs_write_ue_golomb(ptr noundef %0, ptr noundef %1, ptr noundef nonnull @.str.106, ptr noundef nonnull %7, i32 noundef %39, i32 noundef 0, i32 noundef -2)
  %41 = icmp sgt i32 %40, -1
  br i1 %41, label %42, label %60

42:                                               ; preds = %37
  %43 = load i8, ptr %23, align 2, !tbaa !1001
  %.not72 = icmp eq i8 %43, 0
  br i1 %.not72, label %54, label %44

44:                                               ; preds = %42
  %45 = getelementptr inbounds nuw [32 x i32], ptr %17, i64 0, i64 %indvars.iv
  %46 = load i32, ptr %45, align 4, !tbaa !63
  store i32 1, ptr %8, align 4, !tbaa !63
  store i32 %34, ptr %24, align 4, !tbaa !63
  %47 = call fastcc i32 @cbs_write_ue_golomb(ptr noundef %0, ptr noundef %1, ptr noundef nonnull @.str.333, ptr noundef nonnull %8, i32 noundef %46, i32 noundef 0, i32 noundef -2)
  %48 = icmp sgt i32 %47, -1
  br i1 %48, label %49, label %60

49:                                               ; preds = %44
  %50 = getelementptr inbounds nuw [32 x i32], ptr %18, i64 0, i64 %indvars.iv
  %51 = load i32, ptr %50, align 4, !tbaa !63
  store i32 1, ptr %9, align 4, !tbaa !63
  store i32 %34, ptr %25, align 4, !tbaa !63
  %52 = call fastcc i32 @cbs_write_ue_golomb(ptr noundef %0, ptr noundef %1, ptr noundef nonnull @.str.334, ptr noundef nonnull %9, i32 noundef %51, i32 noundef 0, i32 noundef -2)
  %53 = icmp sgt i32 %52, -1
  br i1 %53, label %54, label %60

54:                                               ; preds = %42, %49
  %55 = getelementptr inbounds nuw [32 x i8], ptr %26, i64 0, i64 %indvars.iv
  %56 = load i8, ptr %55, align 1, !tbaa !25
  %57 = zext i8 %56 to i32
  store i32 1, ptr %10, align 4, !tbaa !63
  store i32 %34, ptr %27, align 4, !tbaa !63
  %58 = call i32 @ff_cbs_write_unsigned(ptr noundef %0, ptr noundef %1, i32 noundef 1, ptr noundef nonnull @.str.107, ptr noundef nonnull %10, i32 noundef %57, i32 noundef 0, i32 noundef 1) #11
  %59 = icmp sgt i32 %58, -1
  br i1 %59, label %28, label %60

60:                                               ; preds = %28, %49, %44, %54, %37, %31
  %.2 = phi i32 [ %58, %54 ], [ %52, %49 ], [ %47, %44 ], [ %40, %37 ], [ %35, %31 ], [ 0, %28 ]
  ret i32 %.2
}